; Function Attrs: nounwind uwtable
define ptr @l_Std_Range_forIn_x27_loop___at_Lean_Elab_Deriving_DecEq_mkMatch_mkAlts___spec__5___boxed(ptr noundef readonly captures(none) %0) local_unnamed_addr #0 {
  %2 = load ptr, ptr %0, align 8, !tbaa !4
  %3 = getelementptr inbounds nuw i8, ptr %0, i64 8
  %4 = load ptr, ptr %3, align 8, !tbaa !4
  %5 = getelementptr inbounds nuw i8, ptr %0, i64 16
  %6 = load ptr, ptr %5, align 8, !tbaa !4
  %7 = getelementptr inbounds nuw i8, ptr %0, i64 24
  %8 = load ptr, ptr %7, align 8, !tbaa !4
  %9 = getelementptr inbounds nuw i8, ptr %0, i64 32
  %10 = load ptr, ptr %9, align 8, !tbaa !4
  %11 = getelementptr inbounds nuw i8, ptr %0, i64 40
  %12 = load ptr, ptr %11, align 8, !tbaa !4
  %13 = getelementptr inbounds nuw i8, ptr %0, i64 48
  %14 = load ptr, ptr %13, align 8, !tbaa !4
  %15 = getelementptr inbounds nuw i8, ptr %0, i64 56
  %16 = load ptr, ptr %15, align 8, !tbaa !4
  %17 = getelementptr inbounds nuw i8, ptr %0, i64 80
  %18 = load ptr, ptr %17, align 8, !tbaa !4
  %19 = getelementptr inbounds nuw i8, ptr %0, i64 88
  %20 = load ptr, ptr %19, align 8, !tbaa !4
  %21 = getelementptr inbounds nuw i8, ptr %0, i64 96
  %22 = load ptr, ptr %21, align 8, !tbaa !4
  %23 = getelementptr inbounds nuw i8, ptr %0, i64 104
  %24 = load ptr, ptr %23, align 8, !tbaa !4
  %25 = getelementptr inbounds nuw i8, ptr %0, i64 112
  %26 = load ptr, ptr %25, align 8, !tbaa !4
  %27 = getelementptr inbounds nuw i8, ptr %0, i64 120
  %28 = load ptr, ptr %27, align 8, !tbaa !4
  %29 = getelementptr inbounds nuw i8, ptr %0, i64 128
  %30 = load ptr, ptr %29, align 8, !tbaa !4
  %31 = tail call ptr @l_Std_Range_forIn_x27_loop___at_Lean_Elab_Deriving_DecEq_mkMatch_mkAlts___spec__5(ptr noundef %2, ptr noundef %4, ptr noundef %6, ptr noundef %8, ptr poison, ptr noundef %12, ptr noundef %14, ptr noundef %16, ptr poison, ptr poison, ptr poison, ptr poison, ptr noundef %22, ptr noundef %24, ptr noundef %26, ptr noundef %28, ptr noundef %30)
  %32 = ptrtoint ptr %20 to i64
  %33 = and i64 %32, 1
  %.not = icmp eq i64 %33, 0
  br i1 %.not, label %34, label %lean_dec.exit49

34:                                               ; preds = %1
  %35 = load i32, ptr %20, align 4, !tbaa !8
  %36 = icmp sgt i32 %35, 1
  br i1 %36, label %37, label %39, !prof !11

37:                                               ; preds = %34
  %38 = add nsw i32 %35, -1
  store i32 %38, ptr %20, align 4, !tbaa !8
  br label %lean_dec.exit49

39:                                               ; preds = %34
  %.not.i = icmp eq i32 %35, 0
  br i1 %.not.i, label %lean_dec.exit49, label %40

40:                                               ; preds = %39
  tail call void @lean_dec_ref_cold(ptr noundef nonnull %20) #5
  br label %lean_dec.exit49

lean_dec.exit49:                                  ; preds = %40, %39, %37, %1
  %41 = ptrtoint ptr %18 to i64
  %42 = and i64 %41, 1
  %.not64 = icmp eq i64 %42, 0
  br i1 %.not64, label %43, label %lean_dec.exit48

43:                                               ; preds = %lean_dec.exit49
  %44 = load i32, ptr %18, align 4, !tbaa !8
  %45 = icmp sgt i32 %44, 1
  br i1 %45, label %46, label %48, !prof !11

46:                                               ; preds = %43
  %47 = add nsw i32 %44, -1
  store i32 %47, ptr %18, align 4, !tbaa !8
  br label %lean_dec.exit48

48:                                               ; preds = %43
  %.not.i50 = icmp eq i32 %44, 0
  br i1 %.not.i50, label %lean_dec.exit48, label %49

49:                                               ; preds = %48
  tail call void @lean_dec_ref_cold(ptr noundef nonnull %18) #5
  br label %lean_dec.exit48

lean_dec.exit48:                                  ; preds = %49, %48, %46, %lean_dec.exit49
  %50 = ptrtoint ptr %12 to i64
  %51 = and i64 %50, 1
  %.not65 = icmp eq i64 %51, 0
  br i1 %.not65, label %52, label %lean_dec.exit47

52:                                               ; preds = %lean_dec.exit48
  %53 = load i32, ptr %12, align 4, !tbaa !8
  %54 = icmp sgt i32 %53, 1
  br i1 %54, label %55, label %57, !prof !11

55:                                               ; preds = %52
  %56 = add nsw i32 %53, -1
  store i32 %56, ptr %12, align 4, !tbaa !8
  br label %lean_dec.exit47

57:                                               ; preds = %52
  %.not.i52 = icmp eq i32 %53, 0
  br i1 %.not.i52, label %lean_dec.exit47, label %58

58:                                               ; preds = %57
  tail call void @lean_dec_ref_cold(ptr noundef nonnull %12) #5
  br label %lean_dec.exit47

lean_dec.exit47:                                  ; preds = %58, %57, %55, %lean_dec.exit48
  %59 = ptrtoint ptr %10 to i64
  %60 = and i64 %59, 1
  %.not66 = icmp eq i64 %60, 0
  br i1 %.not66, label %61, label %lean_dec.exit46

61:                                               ; preds = %lean_dec.exit47
  %62 = load i32, ptr %10, align 4, !tbaa !8
  %63 = icmp sgt i32 %62, 1
  br i1 %63, label %64, label %66, !prof !11

64:                                               ; preds = %61
  %65 = add nsw i32 %62, -1
  store i32 %65, ptr %10, align 4, !tbaa !8
  br label %lean_dec.exit46

66:                                               ; preds = %61
  %.not.i54 = icmp eq i32 %62, 0
  br i1 %.not.i54, label %lean_dec.exit46, label %67

67:                                               ; preds = %66
  tail call void @lean_dec_ref_cold(ptr noundef nonnull %10) #5
  br label %lean_dec.exit46

lean_dec.exit46:                                  ; preds = %67, %66, %64, %lean_dec.exit47
  %68 = ptrtoint ptr %8 to i64
  %69 = and i64 %68, 1
  %.not67 = icmp eq i64 %69, 0
  br i1 %.not67, label %70, label %lean_dec.exit45

70:                                               ; preds = %lean_dec.exit46
  %71 = load i32, ptr %8, align 4, !tbaa !8
  %72 = icmp sgt i32 %71, 1
  br i1 %72, label %73, label %75, !prof !11

73:                                               ; preds = %70
  %74 = add nsw i32 %71, -1
  store i32 %74, ptr %8, align 4, !tbaa !8
  br label %lean_dec.exit45

75:                                               ; preds = %70
  %.not.i56 = icmp eq i32 %71, 0
  br i1 %.not.i56, label %lean_dec.exit45, label %76

76:                                               ; preds = %75
  tail call void @lean_dec_ref_cold(ptr noundef nonnull %8) #5
  br label %lean_dec.exit45

lean_dec.exit45:                                  ; preds = %76, %75, %73, %lean_dec.exit46
  %77 = ptrtoint ptr %6 to i64
  %78 = and i64 %77, 1
  %.not68 = icmp eq i64 %78, 0
  br i1 %.not68, label %79, label %lean_dec.exit44

79:                                               ; preds = %lean_dec.exit45
  %80 = load i32, ptr %6, align 4, !tbaa !8
  %81 = icmp sgt i32 %80, 1
  br i1 %81, label %82, label %84, !prof !11

82:                                               ; preds = %79
  %83 = add nsw i32 %80, -1
  store i32 %83, ptr %6, align 4, !tbaa !8
  br label %lean_dec.exit44

84:                                               ; preds = %79
  %.not.i58 = icmp eq i32 %80, 0
  br i1 %.not.i58, label %lean_dec.exit44, label %85

85:                                               ; preds = %84
  tail call void @lean_dec_ref_cold(ptr noundef nonnull %6) #5
  br label %lean_dec.exit44

lean_dec.exit44:                                  ; preds = %85, %84, %82, %lean_dec.exit45
  %86 = ptrtoint ptr %4 to i64
  %87 = and i64 %86, 1
  %.not69 = icmp eq i64 %87, 0
  br i1 %.not69, label %88, label %lean_dec.exit43

88:                                               ; preds = %lean_dec.exit44
  %89 = load i32, ptr %4, align 4, !tbaa !8
  %90 = icmp sgt i32 %89, 1
  br i1 %90, label %91, label %93, !prof !11

91:                                               ; preds = %88
  %92 = add nsw i32 %89, -1
  store i32 %92, ptr %4, align 4, !tbaa !8
  br label %lean_dec.exit43

93:                                               ; preds = %88
  %.not.i60 = icmp eq i32 %89, 0
  br i1 %.not.i60, label %lean_dec.exit43, label %94

94:                                               ; preds = %93
  tail call void @lean_dec_ref_cold(ptr noundef nonnull %4) #5
  br label %lean_dec.exit43

lean_dec.exit43:                                  ; preds = %94, %93, %91, %lean_dec.exit44
  %95 = ptrtoint ptr %2 to i64
  %96 = and i64 %95, 1
  %.not70 = icmp eq i64 %96, 0
  br i1 %.not70, label %97, label %lean_dec.exit

97:                                               ; preds = %lean_dec.exit43
  %98 = load i32, ptr %2, align 4, !tbaa !8
  %99 = icmp sgt i32 %98, 1
  br i1 %99, label %100, label %102, !prof !11

100:                                              ; preds = %97
  %101 = add nsw i32 %98, -1
  store i32 %101, ptr %2, align 4, !tbaa !8
  br label %lean_dec.exit

102:                                              ; preds = %97
  %.not.i62 = icmp eq i32 %98, 0
  br i1 %.not.i62, label %lean_dec.exit, label %103

103:                                              ; preds = %102
  tail call void @lean_dec_ref_cold(ptr noundef nonnull %2) #5
  br label %lean_dec.exit

lean_dec.exit:                                    ; preds = %103, %102, %100, %lean_dec.exit43
  ret ptr %31
}